; Function Attrs: nounwind uwtable
define internal fastcc range(i32 0, 2) i32 @wb_get_next_main_code(ptr noundef readonly captures(none) %0, ptr noundef %1, ptr noundef %2, ptr noundef nonnull writeonly captures(none) %3, ptr noundef nonnull writeonly captures(none) %4) unnamed_addr #0 {
  %6 = load ptr, ptr %0, align 8, !tbaa !12
  %7 = tail call i32 %6(ptr noundef %1) #10
  %8 = sext i32 %7 to i64
  %9 = getelementptr inbounds i8, ptr %1, i64 %8
  %.not23 = icmp ult ptr %9, %2
  br i1 %.not23, label %.lr.ph, label %.loopexit

.lr.ph:                                           ; preds = %5
  %10 = getelementptr inbounds nuw i8, ptr %0, i64 32
  br label %11

11:                                               ; preds = %.lr.ph, %.backedge
  %12 = phi ptr [ %9, %.lr.ph ], [ %35, %.backedge ]
  %13 = load ptr, ptr %10, align 8, !tbaa !9
  %14 = tail call i32 %13(ptr noundef %12, ptr noundef nonnull %2) #10
  br label %15

15:                                               ; preds = %15, %11
  %.016.i = phi i32 [ 0, %11 ], [ %.1.i, %15 ]
  %.01315.i = phi i32 [ 1053, %11 ], [ %.114.i, %15 ]
  %16 = add i32 %.01315.i, %.016.i
  %17 = lshr i32 %16, 1
  %18 = zext nneg i32 %17 to i64
  %19 = getelementptr inbounds nuw [1053 x %struct.WB_RANGE_TYPE], ptr @WB_RANGES, i64 0, i64 %18, i32 1
  %20 = load i32, ptr %19, align 4, !tbaa !54
  %21 = icmp ugt i32 %14, %20
  %22 = add nuw i32 %17, 1
  %.114.i = select i1 %21, i32 %.01315.i, i32 %17
  %.1.i = select i1 %21, i32 %22, i32 %.016.i
  %23 = icmp ult i32 %.1.i, %.114.i
  br i1 %23, label %15, label %24, !llvm.loop !56

24:                                               ; preds = %15
  %25 = icmp ult i32 %.1.i, 1053
  br i1 %25, label %26, label %wb_get_type.exit.thread

26:                                               ; preds = %24
  %27 = zext nneg i32 %.1.i to i64
  %28 = getelementptr inbounds nuw [1053 x %struct.WB_RANGE_TYPE], ptr @WB_RANGES, i64 0, i64 %27
  %29 = load i32, ptr %28, align 4, !tbaa !57
  %.not.i = icmp ult i32 %14, %29
  br i1 %.not.i, label %wb_get_type.exit.thread, label %wb_get_type.exit

wb_get_type.exit:                                 ; preds = %26
  %30 = getelementptr inbounds nuw i8, ptr %28, i64 8
  %31 = load i32, ptr %30, align 4, !tbaa !58
  switch i32 %31, label %wb_get_type.exit.thread [
    i32 18, label %.backedge
    i32 6, label %.backedge
    i32 4, label %.backedge
  ]

.backedge:                                        ; preds = %wb_get_type.exit, %wb_get_type.exit, %wb_get_type.exit
  %32 = load ptr, ptr %0, align 8, !tbaa !12
  %33 = tail call i32 %32(ptr noundef %12) #10
  %34 = sext i32 %33 to i64
  %35 = getelementptr inbounds i8, ptr %12, i64 %34
  %.not = icmp ult ptr %35, %2
  br i1 %.not, label %11, label %.loopexit

wb_get_type.exit.thread:                          ; preds = %24, %26, %wb_get_type.exit
  %36 = phi i32 [ %31, %wb_get_type.exit ], [ 0, %26 ], [ 0, %24 ]
  store i32 %14, ptr %3, align 4, !tbaa !17
  store i32 %36, ptr %4, align 4, !tbaa !17
  br label %.loopexit

.loopexit:                                        ; preds = %.backedge, %5, %wb_get_type.exit.thread
  %.0 = phi i32 [ 1, %wb_get_type.exit.thread ], [ 0, %5 ], [ 0, %.backedge ]
  ret i32 %.0
}